(dp1
S'H'
(lp2
F-0.38798338453373615
aF-1.1857264843864286
aF-1.7696526197255931
aF-1.7568304058950204
aF-2.9308811572311639
aF-0.86272848817627912
aF-0.89934102870284371
aF-2.6222124697645461
aF-1.6631591839234137
aF-1.4732039885283881
aF-1.1924931024042076
aF-1.1106473023681462
aF-1.0932731856176197
aF-2.1494371357712208
aF-2.8656031951772962
aF-1.2056419101662568
aF-1.1848725773364224
aF-3.1648414828725295
aF-1.9425466842210906
aF-1.3359835070064605
aF-0.46276318878149847
aF-1.2705524540472133
aF-1.6516501498589862
aF-1.5832219171744182
aF-2.9657246472955641
aF-0.93439544401465591
aF-0.92743150882994319
aF-2.5369408354681009
aF-1.6924403710923546
aF-1.6064713226714022
aF-1.3825197402217437
aF-1.177275866409474
aF-1.240709933558547
aF-2.2916551848487634
aF-2.6934779872288166
aF-1.0827677474884587
aF-1.1033363611312397
aF-3.2559475816739982
aF-2.054626237059566
aF-1.4439091932789692
aF-0.53299789414954601
aF-1.3843330169454622
aF-1.689351336823806
aF-1.6355313785325727
aF-2.9411314438513587
aF-1.038163861701078
aF-1.0502070129242744
aF-2.5107146623665133
aF-1.7506999656395967
aF-1.573243792163787
aF-1.3793388514099671
aF-1.2862085506373684
aF-1.2361818447794299
aF-2.2604926805537127
aF-2.6170379971627153
aF-1.1150767325637965
aF-1.0955389310172381
aF-3.2556890281449125
aF-2.0569770329621728
aF-1.4067319174125597
aF-0.40073075392167867
aF-1.1604222587372381
aF-1.6684799433903852
aF-1.7629812582711615
aF-2.8623304518222921
aF-0.83890073925897202
aF-0.94186968221730061
aF-2.519396617711597
aF-1.5922746927125326
aF-1.5070608927581197
aF-1.1942757609468502
aF-1.0994580581949562
aF-1.0794405718115416
aF-2.1309437544013634
aF-3.1503999074650526
aF-1.18969664186594
aF-1.1958202780811247
aF-3.1764593815807824
aF-1.9264755411763506
aF-1.376426722187635
aF-0.4812021378294431
aF-1.1832055874778444
aF-1.6771959189366645
aF-1.8796093120094712
aF-2.820757765961428
aF-0.90589331945309126
aF-1.115403326495273
aF-2.4364553671970417
aF-1.6127208336310102
aF-1.4926839557329141
aF-1.1758776361403402
aF-1.1249017666690482
aF-1.071612523516464
aF-2.1195333789204027
aF-3.1270144211632869
aF-1.2396382972208897
aF-1.2186274209625676
aF-3.188631809568522
aF-1.9402639287208745
aF-1.3766206373344492
aF6.0179471356883001
aF8.7027540510827226
aF6.6492088915814449
aF9.8843201700543357
aF5.929886789179414
aF7.0477850960890134
aF10.048076335741271
aF5.8845267631555105
aF7.1831093685772025
aF8.8611761165120715
aF9.2392074493312002
aF7.6897197998815887
aF6.6724491791640563
aF9.2478467742919062
aF6.2514489347582503
aF4.2908474209432184
aF3.5593895905120942
aF9.3142642307695045
aF7.7450312761475377
aF6.4141696480146768
aF5.8783443541149794
aF8.4590644274489737
aF6.9952191992812347
aF10.577118468039453
aF5.9556637709421727
aF6.8077038124487697
aF9.7264675175581665
aF6.2513433826841558
aF7.1363702205805701
aF8.9334992507132327
aF9.2093394397058308
aF7.3492933387590984
aF6.7389241065557037
aF9.0407813793999985
aF7.2179244501564197
aF4.6950508890282476
aF3.998367567974408
aF9.1949937220427511
aF7.5643844776374749
aF6.531453216551049
aF5.8556308091256506
aF8.3246994499287048
aF7.1151098635473273
aF10.647548617158909
aF6.0704263700935135
aF6.7720132059579505
aF9.5651845592677862
aF6.7217998189167991
aF7.1817845415147312
aF9.1448438907772953
aF9.2785070599110391
aF7.2005475920314197
aF6.8873329577774491
aF9.2152562757050482
aF7.8218067798830271
aF4.7718007043603263
aF4.1811166797641084
aF9.2215937240147952
aF7.6552180138717425
aF6.7715807448623568
aF6.067642784597191
aF8.7568075728688353
aF6.996125213130723
aF9.8185121069877521
aF6.1636709375403935
aF7.1117369884902466
aF9.9020957371304039
aF6.6065705262035301
aF7.4365606167545213
aF8.9538893428765594
aF9.3647533310675524
aF7.7115881094917418
aF6.7288351252028411
aF9.3369189771255066
aF4.293097540986536
aF4.3452387546224749
aF3.5761170866098344
aF9.0444005414148965
aF7.8161718067569126
aF6.4860368712437015
aF6.0434229847738861
aF8.8464226489535296
aF7.1599609855074524
aF9.4093263467052211
aF6.239819503837662
aF7.1291332707505735
aF9.3144701127782099
aF7.5609449164614775
aF7.5182294331437669
aF9.1541966192264663
aF9.5196533952648004
aF7.7997651127516088
aF6.8490168379161753
aF9.415376706352399
aF4.9975978900318907
aF4.3057935665882257
aF3.6761349221395663
aF8.927635398867956
aF7.8499372134365686
aF6.6786459019015609
aF0.37983560525101795
asS'C'
(lp3
F-0.93719213462204121
aF-1.4235528663098758
aF-0.76968341454322764
aF-0.88890220198631409
aF-2.963112735308997
aF-1.1070140053784914
aF-1.0753354900551162
aF-1.1645898234683281
aF-1.4060228452751817
aF-2.4437355220065502
aF-2.3633177570093458
aF-1.1007135820219933
aF-2.0012813856271801
aF-2.6886599036131749
aF-1.4561899246478687
aF-0.62293646989908669
aF-0.89636419309316506
aF-3.4581769044385866
aF-2.2882085896104587
aF-2.0635434140107036
aF-0.89419082993849353
aF-1.4014830790531725
aF-0.99519730010384211
aF-1.1763519450435338
aF-2.8759984823068936
aF-1.1144959661314802
aF-1.1302719865803978
aF-1.4488211252229943
aF-1.4225144447107063
aF-2.1428828181164632
aF-2.0473680006390285
aF-1.1292069387863781
aF-1.786674255132199
aF-2.4251437814521926
aF-1.7105832467982001
aF-0.77538142024123335
aF-0.96263346380168813
aF-3.3239010038075461
aF-2.0990927124104695
aF-1.8052892936070506
aF-0.87519303991266606
aF-1.3375169741992172
aF-1.192687115584312
aF-1.3792002822376654
aF-2.8123119524988685
aF-1.1021813510131266
aF-1.1394280693346115
aF-1.8045504166999493
aF-1.4319867135287696
aF-1.8870849641877678
aF-1.8326011129749447
aF-1.1303818196341562
aF-1.6277890939105892
aF-2.2452172697499799
aF-1.9577808397901857
aF-0.84591088212583543
aF-0.93987805202758479
aF-3.2078241073568177
aF-1.9525254945815693
aF-1.5704296136539126
aF-0.95902561439944622
aF-1.4049411561093803
aF-0.9923383124317704
aF-1.0567204515802646
aF-2.9883643528503341
aF-1.1154811353409484
aF-1.0693712224086056
aF-1.400088532097878
aF-1.4519763293127779
aF-2.238201267406875
aF-2.2622646910030086
aF-1.0963502143408685
aF-1.9163305109566793
aF-2.5717942061400003
aF-1.2910276379902548
aF-0.70510823548206725
aF-0.85174534707244987
aF-3.3526739356178608
aF-2.183281412253375
aF-1.8509132784833719
aF-0.93850347471842799
aF-1.4481954096440077
aF-1.2115517746358868
aF-1.2257501930399126
aF-2.9278363554064488
aF-1.1510770295817025
aF-1.0699536704209602
aF-1.7596519956333041
aF-1.5079246212423782
aF-1.9207005351865165
aF-2.0243330138189952
aF-1.184383071065314
aF-1.7492810927390368
aF-2.3665927789759564
aF-1.543560454775408
aF-0.81248835103975292
aF-0.83122320739143174
aF-3.2273677343770801
aF-2.0302307159783797
aF-1.5411474558670821
aF4.0012506083168313
aF6.6170224118946539
aF7.4831459258167445
aF10.030212595195307
aF6.4650869958900756
aF4.9266387713460356
aF6.472634199928649
aF11.127734856532511
aF7.2351507743537562
aF7.3246293933134474
aF7.2359509223482492
aF5.9419495932996247
aF5.8968784336690305
aF8.2253574634049418
aF11.558235908003507
aF4.6335872660630528
aF4.8778023678845717
aF7.9146112941128264
aF7.270611555078017
aF6.1489696632509432
aF4.2582115873033883
aF6.9843234920815602
aF7.5021569537596386
aF9.7212098138851868
aF6.6221712179275132
aF5.2876768121422355
aF6.9588027004643447
aF10.613084852501823
aF7.4427339070735981
aF7.9471671080811932
aF7.7965620876702202
aF6.3147917080553944
aF6.0045194184175399
aF8.8875389700709597
aF10.796450020632918
aF4.5868710935710801
aF4.6221393012556948
aF8.2372280870253594
aF7.7238820748090742
aF6.5870178470561749
aF4.4243312292095274
aF7.464047118953153
aF7.3847371067059999
aF9.6416699092148708
aF6.7384771667925945
aF5.5822214578528415
aF7.4286121073309106
aF9.4595362338147986
aF7.6246643385132726
aF8.2907555332410503
aF7.8757572009843697
aF6.6900325591727441
aF5.9196805447004408
aF9.1861707777708652
aF10.017671306120535
aF4.7137522169927033
aF4.6036556338842045
aF8.7609867903780732
aF8.011684984332943
aF6.8958970330021803
aF3.9128543425383051
aF6.7838918988438506
aF7.182570369035604
aF9.7773563186137
aF6.1576913816698227
aF5.036252067010369
aF6.7776815760614904
aF10.570695068985106
aF7.1577770670543996
aF7.7080476791612025
aF7.0371994721758231
aF6.119564121356559
aF5.8340044223271263
aF8.4558115903174951
aF12.365528570936556
aF4.6017586597604092
aF4.8697384799739032
aF8.5937528681573543
aF7.5371870063901003
aF6.5590229830442652
aF4.0827100430742309
aF6.9871850172716741
aF7.2047798882359819
aF10.080676757681015
aF6.324344822094937
aF5.3378009141873912
aF7.6603486492393253
aF9.5058827555893011
aF7.3280384864259531
aF8.4102651001922091
aF7.2515812675974196
aF6.349623113696957
aF5.7750530683881571
aF8.8006983996338395
aF11.284147698071381
aF4.7547021234715627
aF4.8458986635197796
aF9.1848244022137422
aF7.8672831110076835
aF7.2137194597639445
aF0.38825175837254111
asS'E'
(lp4
F-1.2971973031704462
aF-1.9416058394160585
aF-2.3834234133838526
aF-2.771321112163593
aF-2.4013539867387306
aF-1.8811333370479746
aF-2.1229453390538811
aF-2.9640664177857023
aF-1.9601381846548169
aF-0.48498356271243104
aF-1.0671811444809718
aF-1.982342452777623
aF-1.0934195130105311
aF-1.3900540480303114
aF-3.1430768373544327
aF-1.5186103527051875
aF-0.85957541650415115
aF-2.851301053100797
aF-1.4266562656711428
aF-0.11600824650359391
aF-1.2467041845433777
aF-1.8396277929458962
aF-2.199164205716833
aF-2.5744358388588622
aF-2.4901153396110769
aF-1.7512341895581434
aF-1.9849724187886555
aF-2.6278820972864545
aF-1.8846158132278374
aF-0.77036830668078227
aF-1.2848776954365633
aF-1.8255140134841479
aF-1.2112163592801026
aF-1.5982838357385636
aF-2.9990973421741796
aF-1.4646459018220315
aF-0.88216972195910182
aF-2.9268735721847663
aF-1.5597091435894579
aF-0.37158299437231851
aF-1.1634757898255976
aF-1.760366635092216
aF-1.8067977935030923
aF-2.1491781356215522
aF-2.6369978269348637
aF-1.6019111829275088
aF-1.7685908508385804
aF-2.0752939209895804
aF-1.7733437343288572
aF-1.2530172173622331
aF-1.6496238925725748
aF-1.6451440352147992
aF-1.4846213851897252
aF-1.9505321223602829
aF-2.7104530005014764
aF-1.2936591073717056
aF-0.93303616203265172
aF-3.1216136401627015
aF-1.8012258316153118
aF-0.82565331253134233
aF-1.2397615200312029
aF-2.014197358890065
aF-2.1763637376720344
aF-2.4802808268791443
aF-2.4713434000111438
aF-1.9059787151055887
aF-2.0632640552738621
aF-2.7381902267788489
aF-1.9992923608402517
aF-0.77362790438513396
aF-1.2334484872123475
aF-2.0079623335376384
aF-1.2583495848888393
aF-1.6159915306179307
aF-2.9531119407143254
aF-1.4071488271020227
aF-0.916336992254973
aF-3.0088872792110104
aF-1.6286343121413049
aF-0.40574469270630187
aF-1.1423134785758065
aF-1.9044631414721123
aF-1.7951078174625286
aF-2.0063186047807431
aF-2.6407477572853399
aF-1.736663509221597
aF-1.7780854738953586
aF-2.2720733270184432
aF-1.8721346185992087
aF-1.3286956037220705
aF-1.6618933526494679
aF-1.8189168106090154
aF-1.5508218643784477
aF-1.9781969131331141
aF-2.5686354265336826
aF-1.1456009360895971
aF-0.91335599264501033
aF-3.1987073048420349
aF-1.8622611021340614
aF-0.9240040118125592
aF4.605628184339289
aF8.7437010597613103
aF6.9813700599234183
aF8.2691245877658446
aF7.7069876357152021
aF6.3106548029136889
aF8.086411161169675
aF7.9989149402625976
aF8.8893008779911504
aF10.883016831231931
aF8.0738897695526397
aF7.2520702247373583
aF5.7811875435702156
aF10.652956184724644
aF6.4267012479474861
aF5.4485058306105199
aF5.8862150757626051
aF10.964543774483325
aF9.8248179440874388
aF9.7106185340671853
aF4.5601656294974573
aF8.6766488389848373
aF7.2221378204250968
aF8.6601053748668395
aF7.4826431415467072
aF6.3325213218179925
aF8.079135624969414
aF9.6165959658215741
aF8.6694078356234261
aF11.001974807229505
aF8.2037558258463754
aF7.4265836704334545
aF6.0179440656752332
aF10.482798637212808
aF7.2219192832775381
aF5.1293540884099684
aF5.6552139249460796
aF10.749586497812862
aF9.619778552475454
aF9.8418224398050107
aF4.4615856901084285
aF8.1775064794959036
aF7.8644949389432268
aF9.5430492771818081
aF7.1912137651375554
aF6.1090073241384477
aF7.9363701266309761
aF11.65547196325964
aF8.3236756918942572
aF11.002817970556443
aF8.2969167527268919
aF7.2240410265069652
aF6.1064303506091111
aF10.08612483525857
aF8.3314018508434984
aF4.9551361456746967
aF5.3950700874590565
aF9.9233056259609249
aF9.1557749502155179
aF9.8886426263386848
aF4.7321394204741827
aF8.2739723916546115
aF7.7733979772159056
aF9.7464852835974032
aF7.8964624678569866
aF5.9631998932264647
aF7.9577740007629005
aF8.8914879600232073
aF8.6067248572523258
aF11.171740017111723
aF8.5940503077569659
aF6.8731800402582461
aF6.0121544723158937
aF10.600929984438007
aF7.3940738673999924
aF5.6186339112509547
aF5.8593904270268231
aF10.428343593849656
aF9.532210666234862
aF9.969025894146613
aF4.6685137986404719
aF7.9227944783233841
aF8.1254566482583286
aF10.693524459248374
aF7.6131064336693068
aF5.7201173127024481
aF7.9511606963268084
aF10.217562442273271
aF8.2956245903325971
aF10.782297418186262
aF8.5197620139214028
aF6.6382458206290149
aF6.1450713421427494
aF10.369062709765419
aF9.2156017652956255
aF5.6233147709203859
aF5.7085567821152789
aF9.7050520983830317
aF9.1009254719211778
aF9.6265252728411266
aF0.23191263637644097
as.