(dp1
S'H'
(lp2
F-1.6415094339622642
aF-1.0377358490566038
aF-0.69811320754716977
aF-0.81132075471698117
aF-2.9433962264150941
aF0.28301886792452829
aF0.037735849056603772
aF-3.0188679245283021
aF-1.3584905660377358
aF-2.1509433962264151
aF-1.5283018867924529
aF-0.26415094339622641
aF-1.5094339622641511
aF-2.4905660377358489
aF-2.4716981132075473
aF-0.22641509433962265
aF-0.96226415094339623
aF-3.3962264150943398
aF-2.5283018867924527
aF-2.4528301886792452
aF-1.4528301886792452
aF-0.81132075471698117
aF-0.58490566037735847
aF-1.3018867924528301
aF-2.641509433962264
aF0.37735849056603776
aF-0.094339622641509441
aF-2.9433962264150941
aF-1.7169811320754718
aF-2.1132075471698113
aF-1.4339622641509433
aF-0.094339622641509441
aF-1.4905660377358489
aF-2.0188679245283021
aF-2.4716981132075473
aF0.056603773584905662
aF-0.67924528301886788
aF-3.1886792452830188
aF-2.3207547169811322
aF-2.1698113207547172
aF-1.320754716981132
aF-1.0943396226415094
aF-0.64150943396226412
aF-1.5094339622641511
aF-2.5094339622641511
aF0
aF-0.64150943396226412
aF-3.2452830188679247
aF-1.9056603773584906
aF-1.9622641509433962
aF-1.3584905660377358
aF-0.43396226415094341
aF-1.7169811320754718
aF-1.9245283018867925
aF-2.5471698113207548
aF-0.35849056603773582
aF-0.69811320754716977
aF-3.3773584905660377
aF-2.2452830188679247
aF-1.8679245283018868
aF-1.5094339622641511
aF-1.2452830188679245
aF-0.49056603773584906
aF-0.83018867924528306
aF-2.6981132075471699
aF0.39622641509433965
aF0.13207547169811321
aF-2.9622641509433962
aF-1.2452830188679245
aF-2.1698113207547172
aF-1.679245283018868
aF-0.16981132075471697
aF-1.320754716981132
aF-2.641509433962264
aF-2.9056603773584904
aF0.13207547169811321
aF-0.75471698113207553
aF-3.7735849056603774
aF-2.358490566037736
aF-2.3773584905660377
aF-1.5283018867924529
aF-1.5471698113207548
aF-0.33962264150943394
aF-1.1320754716981132
aF-2.641509433962264
aF0.037735849056603772
aF-0.60377358490566035
aF-2.3207547169811322
aF-1.5849056603773586
aF-2.2452830188679247
aF-1.8301886792452831
aF-0.43396226415094341
aF-1.5283018867924529
aF-2.641509433962264
aF-3
aF-0.094339622641509441
aF-1
aF-3.9245283018867925
aF-2.3396226415094339
aF-2.5094339622641511
aF3.2111071555713777
aF6.0740477038091845
aF7.0409398362406552
aF11.247419010323958
aF11.826984692061231
aF8.2406550373798488
aF9.9231043075827685
aF3.4524741901032385
aF5.4375222499110025
aF5.7885368458526161
aF9.0039159843360679
aF6.8358846564613742
aF6.5895336418654296
aF8.7782128871484542
aF7.3058027767888944
aF5.5713777144891417
aF3.5080099679601275
aF11.144891420434316
aF5.381274474902102
aF3.5307938768244931
aF2.5119259522961905
aF5.7379850480598051
aF8.0918476326094648
aF7.3050907796368829
aF13.928088287646844
aF8.4991100035599878
aF10.349590601637594
aF3.4873620505517979
aF3.9010323958704181
aF4.7041651833392653
aF7.9060163759344952
aF6.198647205411179
aF5.4951940192239226
aF10.358134567461724
aF7.1925952296190827
aF5.4873620505517993
aF3.5386258454966191
aF11.247419010323952
aF5.2367390530437881
aF2.9711641153435391
aF3.3876824492702031
aF6.877892488430045
aF9.1356354574581715
aF8.7782128871484506
aF15.155571377714484
aF9.9622641509433958
aF10.682805268778926
aF3.4681381274474896
aF4.5005339978640082
aF5.1306514773940908
aF8.305446778212886
aF7.9437522249910995
aF4.9576361694553235
aF10.371662513349943
aF7.2289070843716621
aF5.1733713065147731
aF3.9088643645425418
aF11.668921324314699
aF5.3171947312210746
aF5.6240655037379854
aF4.3631185475258114
aF5.3926664293342821
aF6.5140619437522265
aF10.5560697757209
aF11.795656817372727
aF7.6731933072267688
aF9.3599145603417568
aF3.4702741189035229
aF5.7700249199003188
aF5.9145603417586372
aF9.2744749021003905
aF6.8956924172303342
aF6.7461730153079387
aF8.6073335706657144
aF4.3495906016375931
aF5.1712353150587385
aF3.5058739765040929
aF6.2128871484514034
aF6.7205411178355288
aF3.3292986828052684
aF4.211463154147383
aF5.7194731221075115
aF7.5827696689213244
aF10.454254182983266
aF12.079031683873264
aF9.3948024207903149
aF8.9184763260946944
aF9.1612673549305779
aF5.8276966892132389
aF6.9021003915984336
aF10.669277322890716
aF7.604129583481666
aF7.5322178711285179
aF8.4941260234959053
aF3.6603773584905661
aF5.3684585261658944
aF4.2641509433962268
aF6.0320398718405057
aF7.6959772160911335
aF4.0234959060163762
aF0.11936936936936937
asS'C'
(lp3
F-1.1046511627906976
aF-1.3837209302325582
aF-0.47674418604651164
aF-0.7558139534883721
aF-3.38953488372093
aF-1.0465116279069768
aF-0.59883720930232553
aF-1.441860465116279
aF-1.5813953488372092
aF-2.38953488372093
aF-2.5232558139534884
aF-0.76162790697674421
aF-2.2848837209302326
aF-2.9476744186046511
aF-0.79651162790697672
aF-0.13953488372093023
aF-0.89534883720930236
aF-4.5232558139534884
aF-2.8488372093023258
aF-2.0930232558139537
aF-1.4360465116279071
aF-1.2558139534883721
aF-0.63953488372093026
aF-0.91860465116279066
aF-3.61046511627907
aF-0.80813953488372092
aF-0.55232558139534882
aF-1.9476744186046511
aF-1.319767441860465
aF-1.9360465116279071
aF-2.1627906976744184
aF-0.54069767441860461
aF-2.0988372093023258
aF-2.9476744186046511
aF-1.4069767441860466
aF-0.40697674418604651
aF-0.92441860465116277
aF-4.4011627906976747
aF-2.7848837209302326
aF-1.8837209302325582
aF-1.441860465116279
aF-1.3313953488372092
aF-1.0872093023255813
aF-1.5930232558139534
aF-3.2732558139534884
aF-0.93023255813953487
aF-0.88953488372093026
aF-2.5465116279069768
aF-1.4360465116279071
aF-1.3779069767441861
aF-1.7151162790697674
aF-0.72093023255813948
aF-1.75
aF-2.3313953488372094
aF-1.7732558139534884
aF-0.42441860465116277
aF-0.63372093023255816
aF-4.0639534883720927
aF-2.3372093023255816
aF-1.1976744186046511
aF-1.1279069767441861
aF-1.2209302325581395
aF-0.63953488372093026
aF-1.0930232558139534
aF-3.1162790697674421
aF-0.93023255813953487
aF-0.81395348837209303
aF-1.5
aF-1.3255813953488371
aF-2.4069767441860463
aF-2.5988372093023258
aF-0.76744186046511631
aF-2.3953488372093021
aF-2.7325581395348837
aF-1.0348837209302326
aF-0.12790697674418605
aF-0.80232558139534882
aF-4.1511627906976747
aF-2.5930232558139537
aF-1.9186046511627908
aF-1.2209302325581395
aF-1.0639534883720929
aF-1.3139534883720929
aF-1.5523255813953489
aF-2.8372093023255816
aF-0.84302325581395354
aF-0.78488372093023251
aF-2.2093023255813953
aF-1.3139534883720929
aF-1.8837209302325582
aF-2.1569767441860463
aF-0.90697674418604646
aF-2.0232558139534884
aF-2.2965116279069768
aF-1.319767441860465
aF-0.22093023255813954
aF-0.61627906976744184
aF-3.8837209302325579
aF-2.4127906976744184
aF-1.3779069767441861
aF3.9309085992428332
aF6.364386154678205
aF9.7494591671173758
aF9.6496755002704138
aF8.3657044348296239
aF6.137371552190368
aF7.2053474851270973
aF11.26987560843699
aF6.8945375878853392
aF8.3424486208761426
aF6.6564359113034062
aF6.4257368848026077
aF4.3548877771768533
aF7.0612155219037342
aF15.499290156841539
aF5.0037858301784723
aF3.8262574364521349
aF4.2959707950243331
aF5.1631963223363986
aF6.5146024878312598
aF3.4900959978366686
aF6.8647917793401891
aF9.8351811790156898
aF10.307328285559761
aF7.0052393185505712
aF6.7015616549486205
aF8.130982963764195
aF10.270517847485131
aF8.0198418063818213
aF9.9435843699297024
aF7.4386154678204459
aF8.0506692806922651
aF4.7402312060573299
aF5.9333085451595471
aF12.706462952947543
aF5.3576257436452135
aF3.9884734991887463
aF5.6123242293131375
aF5.1688412655489477
aF7.6492698756084376
aF3.8280151433207141
aF7.1401771227690647
aF9.8237898864251036
aF8.0436722552731208
aF7.8381219578150274
aF6.5881557598701983
aF8.3075648999459126
aF8.5617901568415213
aF8.7459099513250411
aF9.6071863169280629
aF6.9013994050838257
aF8.2593293672255221
aF4.6526162790697674
aF7.3611073553272037
aF11.942773120605731
aF5.930333964305027
aF4.3716535965386685
aF6.0482355327203949
aF6.5839643050297427
aF8.333017847485122
aF3.448756084369923
aF6.4860735532720435
aF8.2770416441319572
aF8.6076257436452188
aF10.649269875608431
aF6.5067604110329853
aF6.6863169280692292
aF11.401162790697674
aF6.9172525689561928
aF7.1018117901568409
aF5.8448823688480225
aF6.3063818280151436
aF4.0762574364521376
aF7.6610329908058468
aF16.626690102758243
aF4.98363980530016
aF4.5539480800432708
aF6.7445916711736125
aF6.1483234180638187
aF6.8887236343969738
aF3.6256084369929669
aF7.8273053001622523
aF7.0060843699296944
aF7.9449364521362886
aF10.903731746890207
aF7.1207071389940504
aF7.8316319632233684
aF9.0375878853434273
aF8.122363439697132
aF7.7306652244456417
aF5.1323350459708026
aF6.665765278528931
aF3.9762033531638692
aF9.3016157382368796
aF16.601237155219021
aF5.8116549486208759
aF4.7015954570037835
aF7.4283396430503075
aF6.3354177934018381
aF6.851372363439701
aF0.38738738738738737
asS'E'
(lp4
F-1.6484018264840183
aF-1.4885844748858448
aF-2.2831050228310503
aF-2.9634703196347032
aF-2.4018264840182648
aF-1.2511415525114156
aF-1.6666666666666667
aF-3.3926940639269407
aF-1.6666666666666667
aF-0.91324200913242004
aF-1.5707762557077625
aF-1.4337899543378996
aF-1.3424657534246576
aF-1.5799086757990868
aF-3.7990867579908674
aF-0.908675799086758
aF-0.43378995433789952
aF-3.1415525114155249
aF-1.7123287671232876
aF-0.56164383561643838
aF-1.45662100456621
aF-1.6255707762557077
aF-2.1735159817351599
aF-2.7031963470319633
aF-2.2876712328767121
aF-1.4474885844748859
aF-1.6575342465753424
aF-3.0410958904109591
aF-1.7671232876712328
aF-1.2602739726027397
aF-1.8584474885844748
aF-1.634703196347032
aF-1.4748858447488584
aF-1.6712328767123288
aF-3.3059360730593608
aF-0.78538812785388123
aF-0.47031963470319632
aF-3.2648401826484017
aF-1.7945205479452055
aF-0.78082191780821919
aF-1.4748858447488584
aF-1.5159817351598173
aF-1.8036529680365296
aF-2.1187214611872145
aF-2.5616438356164384
aF-1.2876712328767124
aF-1.2785388127853881
aF-2.4794520547945207
aF-1.634703196347032
aF-1.7214611872146119
aF-2.2100456621004567
aF-1.4337899543378996
aF-1.6803652968036529
aF-2.1552511415525113
aF-2.9863013698630136
aF-0.66666666666666663
aF-0.70319634703196343
aF-3.4611872146118721
aF-2.1506849315068495
aF-1.3744292237442923
aF-1.6529680365296804
aF-1.547945205479452
aF-2.1872146118721463
aF-2.6757990867579911
aF-2.6666666666666665
aF-1.3561643835616439
aF-1.5022831050228311
aF-3.3424657534246576
aF-1.8767123287671232
aF-0.93150684931506844
aF-1.4840182648401827
aF-1.4383561643835616
aF-1.3059360730593608
aF-1.7077625570776256
aF-3.493150684931507
aF-0.9908675799086758
aF-0.55251141552511418
aF-3.3287671232876712
aF-1.9452054794520548
aF-0.73515981735159819
aF-1.5753424657534247
aF-1.5936073059360731
aF-1.7077625570776256
aF-2.2602739726027399
aF-2.8812785388127855
aF-1.3561643835616439
aF-1.3744292237442923
aF-2.9315068493150687
aF-1.7990867579908676
aF-1.3059360730593608
aF-1.7762557077625571
aF-1.2648401826484019
aF-1.5342465753424657
aF-2.0319634703196345
aF-3.2374429223744294
aF-0.85844748858447484
aF-0.63013698630136983
aF-3.4840182648401825
aF-2.0776255707762559
aF-1.1141552511415524
aF5.4882508704989803
aF9.3366276766539489
aF8.2942807697921204
aF7.1036884135026508
aF14.614791184504092
aF8.4620420758532919
aF10.048706240487059
aF7.4257000479556421
aF9.445966514459661
aF8.6545735076416239
aF6.8568628677467327
aF9.7524655449219146
aF5.0744980296490931
aF9.3121077542169797
aF5.1194512207835476
aF7.3980525843914711
aF7.569817143095432
aF15.372656950438852
aF9.9218114718208579
aF8.227935197347847
aF6.0106753403807263
aF8.8552365463605849
aF8.3169241675527967
aF8.4826838472925754
aF14.83505348095326
aF7.6901649256687739
aF9.220616751110267
aF9.1170325889785584
aF8.8087821354850764
aF8.3751798336148173
aF6.8064469047768101
aF8.1861929484372684
aF5.2082733887950603
aF9.8736473384625079
aF9.7191885073288802
aF7.2096495068910222
aF7.4363336877879957
aF14.550864243864769
aF10.081065866016139
aF8.0798148495652615
aF5.5187756719000864
aF8.3867308855111293
aF8.906653322491195
aF11.237046767164996
aF14.383186338900378
aF7.620441608807158
aF9.5982152165300825
aF10.888847188340531
aF8.1313984278893248
aF8.694105627488991
aF7.0061091303350498
aF7.9259815266570763
aF5.5690665332249116
aF9.3822897771105733
aF11.24638768999813
aF6.9528158295281521
aF7.1219532536852688
aF14.568128270886755
aF9.3608556952523934
aF7.4671086924793109
aF5.5964637934988914
aF9.3344592481391047
aF9.8142657575947112
aF9.1049394299535038
aF13.181126331811258
aF8.1288546944392372
aF10.761410312545621
aF7.4945893538499968
aF9.1491837117658061
aF9.2601488709576572
aF7.2725756343695673
aF9.7530493525989961
aF5.079919100936177
aF9.2205333500135502
aF6.2042909864264697
aF7.2967202518713048
aF7.0782927795500621
aF15.243510352161081
aF9.2298742728466951
aF8.3590834219469876
aF5.5593920060048783
aF8.1225162110881488
aF11.403181751840037
aF10.566960655532624
aF12.990471424699232
aF7.3525989866766777
aF10.179437459602605
aF9.2692812910489817
aF8.251871312107756
aF9.2625675027626624
aF7.9545047017368358
aF9.5462980338191414
aF5.399512103584164
aF8.3597089301724274
aF7.4139404933174822
aF6.8064469047768039
aF6.7536123100018814
aF14.989470611538556
aF8.9757094305790215
aF8.6947311357144308
aF0.49324324324324326
as.