(lp1
F9.7031208746599907e-05
aF-5.8045441501826273e-05
aF-0.00013545973799104769
aF-9.6379184189131131e-05
aF-0.00011038894600318935
aF3.0548014681165964e-05
aF-0.00018434817728376143
aF-0.0001927619429839015
aF-5.0372967685198741e-05
aF-5.9636401150265711e-05
aF7.5938726516326487e-05
aF-4.9062212364834463e-05
aF-0.00014222006087300477
aF-2.9163527712873208e-05
aF7.612360953906087e-05
aF-8.2192037535488025e-05
aF-7.094440263556034e-05
aF-1.8214644331153809e-05
aF6.6514849865518773e-05
aF5.3714388051113765e-05
aF9.1481819188175112e-05
aF-0.00012940851858732485
aF-0.00020143033993306783
aF-0.00024626006692274831
aF-0.00028889697860249891
aF0.00012371940630459758
aF-0.00024386685373095911
aF-0.00027653410526973438
aF-0.00023388510652650547
aF-4.585298447758407e-05
aF0.00020800367716569188
aF0.00011793713024028098
aF-0.00022154434085016082
aF2.4891438701656429e-05
aF0.00017975637426569707
aF-0.00015088809890231885
aF-0.00015533149190673082
aF-1.8929768349593928e-05
aF0.00015266194345072253
aF0.00010867421185422554
aF0.00019607667760918648
aF-0.00010645236633263987
aF-0.00047179582535540149
aF-0.00044258310183514955
aF-0.00058298435262098638
aF0.00029082258964840008
aF-0.0004628270232389402
aF-0.00054295857657357986
aF-0.00039411874389263114
aF-0.00022109066875917343
aF0.00047583539105962205
aF0.00036823434449176281
aF-0.00053414084988190986
aF0.0002312367825697129
aF0.0005237177666873456
aF-0.00020271912602431671
aF-0.00025109903595650499
aF-0.00011430818299041658
aF0.0003023954469992022
aF0.00032087443875831773
aF0.00037540405876276557
aF-6.7963080217270746e-05
aF-0.00013990419097445074
aF-0.00011702086655312226
aF-0.00015928591374778827
aF0.00010093834075625903
aF-0.00019393460491171904
aF-0.00019144512245033665
aF-4.0546126235921633e-05
aF-3.3227622062299843e-05
aF8.3831183330804982e-05
aF1.1474391420734752e-06
aF-0.00015747430194435323
aF2.8869661399151319e-05
aF0.00013788764656825312
aF-0.00014528265091942973
aF-3.5587789305120338e-05
aF6.2028822111936575e-05
aF0.00012443550879206295
aF0.00012165467948768325
aF8.4349013114257254e-05
aF-9.3096461107738693e-05
aF-0.00010054408447193744
aF-5.1726287598576592e-05
aF-7.8849893474691832e-05
aF8.9644718079943012e-05
aF-0.00014183161730931248
aF-0.00012617272617271861
aF2.2568275000274381e-05
aF-1.8623783049297876e-05
aF8.0200720765346866e-06
aF1.479303522871826e-05
aF-0.00014265771902840387
aF-1.0553455281268688e-05
aF7.2243692720930144e-05
aF-0.00011282845711331465
aF-5.2573192814684723e-05
aF-3.2722235576416911e-05
aF9.2440967675368467e-05
aF4.9311891517895487e-05
aF2.2281475790028611e-05
aF1.6507792600276261e-06
aF-1.6741740571502788e-05
aF-1.7030913585247039e-05
aF-3.4539613963446167e-05
aF5.8796778605189014e-05
aF-4.7415683360989112e-05
aF-2.7250249468722713e-05
aF0.00013117984336973609
aF6.030838215885585e-06
aF-2.5260612154332303e-05
aF-4.7773403921033195e-05
aF-1.3875628208129686e-05
aF-3.1142146703783833e-05
aF-4.641297790428642e-05
aF-4.9660627680226557e-05
aF-2.1282877415055366e-05
aF2.0036939402271093e-05
aF1.9095710932457685e-05
aF-1.7140798522736576e-05
aF5.4054596678922582e-06
aF-2.9778866828635738e-05
aF-2.904225460145016e-05
aF-5.7868936699619761e-05
aF-1.9475532421083491e-05
aF0.00012924575630200705
aF-6.6229888800652887e-05
aF-4.3787776210762433e-05
aF6.6312343810419368e-05
aF1.6244607894682406e-05
aF7.4721188129369633e-06
aF-7.3571724667226851e-05
aF-6.9536960130388178e-05
aF-6.0644114475757382e-05
aF6.7988804613042846e-05
aF-7.581503645099197e-05
aF-1.4202211612835765e-05
aF2.4655255166185799e-05
aF-1.7178386327725375e-05
aF6.6531772386206836e-05
aF5.8838379517963464e-05
aF-0.00011500399314061384
aF-0.00042401993996876849
aF-0.00042232921322664228
aF-0.00057601033177366438
aF0.00029959413145086639
aF-0.00044872495742952624
aF-0.000611819514511465
aF-0.00030133311928031201
aF-0.00024095255870585061
aF0.00043884645955956576
aF0.00033061641673538805
aF-0.0005152893231968053
aF0.00021248255306288957
aF0.00043150580924642909
aF-0.00017119608939547028
aF-0.00026201368795032801
aF-7.9863896394106028e-05
aF0.0001857386138466379
aF0.00025856717707293424
aF0.00039197482609604705
aF-8.1124947996187211e-05
aF-0.00013152366816747432
aF-0.00015327570207857109
aF-0.00022800221930737211
aF0.00016909702001248754
aF-0.00019318702793254627
aF-0.00024408979551566217
aF-0.00014146168144882988
aF-6.2781549636361321e-05
aF0.00014319257944498466
aF0.00010133983585038045
aF-0.00022995744661519096
aF3.5763934600127849e-05
aF0.0001012367686702349
aF-2.2435166473684424e-05
aF-9.5922715727693835e-05
aF-4.4687142217652559e-05
aF8.6064705248725529e-05
aF7.5791712959456982e-05
aF0.00013466359611869719
aF2.0179190090470536e-05
aF-9.8413151439809187e-05
aF-6.5919200283985621e-05
aF-5.2593783288422618e-05
aF7.5090666730593953e-05
aF-7.1677095826518634e-05
aF-9.9209842782558617e-05
aF0.00010691938654198523
aF-7.7293926186348515e-05
aF-1.4203592834589564e-05
aF-4.7139145443065764e-05
aF-9.5022179419017742e-05
aF-4.5975918357194313e-05
aF6.3607565283989508e-06
aF-1.1530250284723036e-05
aF-4.7207648724641836e-06
aF-1.2306452272500962e-05
aF3.005750934364131e-05
aF-3.6897845088958267e-05
aF-4.8170196568733832e-06
a.