(lp1
F14.862120852093954
aF-0.30683404244673618
aF-0.56451023242616816
aF-0.5919559154002827
aF-0.63595214759222651
aF-0.87488154688922393
aF-0.49304073198650489
aF-0.51922372813505346
aF-0.65598871441390894
aF-0.61351842392457989
aF-0.50004230281570827
aF-0.5893203095213102
aF-0.47421824502506327
aF-0.50623965243221247
aF-0.7225858119307782
aF-0.84187075662997857
aF-0.40672238144937489
aF-0.38878362928661653
aF-1.1022047140919125
aF-0.7037658946550015
aF-0.38782066586006514
aF-0.26731750141047222
aF-0.60814607449478864
aF-0.72602995142993276
aF-0.77018339882391318
aF-0.78440403437547912
aF-0.5674813421965329
aF-0.65921633187647977
aF-0.78237344938616904
aF-0.67560088308847188
aF-0.38810283789551325
aF-0.49573283156700765
aF-0.55654808195529071
aF-0.42338491294045322
aF-0.6866249586606149
aF-0.94273047834531898
aF-0.44457529304206433
aF-0.33959500907992279
aF-1.0289972891813013
aF-0.67754808237925723
aF-0.23459735161955581
aF-0.29717836805969822
aF-0.82026071710590931
aF-0.8419641149305267
aF-0.9571630252278982
aF-0.71060348385023375
aF-0.72753049274006087
aF-0.83086069330112378
aF-0.83136879183357593
aF-0.78808909978528974
aF-0.24865811386406916
aF-0.32046043592714624
aF-0.77507302479960816
aF-0.37792949860018404
aF-0.52689678747883939
aF-0.98383315503934443
aF-0.53828145180713827
aF-0.40888660292559964
aF-1.0434656080421754
aF-0.63838278837547036
aF-0.14296756621174211
aF-0.29955405587812983
aF-0.635774700304924
aF-0.65829312799198803
aF-0.7056795720337099
aF-0.8623305508327862
aF-0.53600304799492171
aF-0.57028346239845207
aF-0.81128689395193532
aF-0.69826661270629509
aF-0.45951235989296424
aF-0.56445370342432666
aF-0.57296991795224028
aF-0.4934420229057796
aF-0.68405223832347739
aF-0.93001902891029664
aF-0.43464555588488873
aF-0.36374657173909397
aF-1.058444680522129
aF-0.65887691795376302
aF-0.32099636416383132
aF-0.27254812013794077
aF-0.53707036759094784
aF-0.58640560804411868
aF-0.6381152991298793
aF-0.8911546351416636
aF-0.43835700520997056
aF-0.48039769501477314
aF-0.65225888640402274
aF-0.57937038589974399
aF-0.62702298942237988
aF-0.65535132218629533
aF-0.43171975400025875
aF-0.55270342014517493
aF-0.76121090757049858
aF-0.8715088557530678
aF-0.37045135973126847
aF-0.37645057078955507
aF-1.0266825870434748
aF-0.64779465733510322
aF-0.54017328887507776
aF-0.22935157981328855
aF-0.46163552422059634
aF-0.52494073112021
aF-0.51861233524692751
aF-0.85148275792126304
aF-0.4034664522620266
aF-0.37485811248634715
aF-0.56894706434963382
aF-0.55244906953472728
aF-0.60262610770407166
aF-0.63229303311448604
aF-0.36927585116671724
aF-0.52067242956369175
aF-0.81910608684673303
aF-0.86010781141643733
aF-0.38846414899706544
aF-0.37008558029451216
aF-1.1052898489781595
aF-0.6782881331165902
aF-0.42305136156149609
aF-0.2655168652825049
aF-0.45491732508614441
aF-0.53280517324490728
aF-0.55954554181125471
aF-0.89334797468951621
aF-0.41824476310192416
aF-0.43933696037086051
aF-0.73945032043760783
aF-0.57262061224466776
aF-0.48782543763953279
aF-0.54121595300394654
aF-0.40120263088965108
aF-0.50914345670540462
aF-0.70067756928429226
aF-0.80516641316326043
aF-0.39002195758590591
aF-0.32754345127085149
aF-0.99839155987831096
aF-0.59979985551745552
aF-0.35395453532388022
aF-0.2907433797572786
aF-0.72027041334158792
aF-0.80164947792280294
aF-0.90456292111392056
aF-0.75248115027142393
aF-0.62402680446966385
aF-0.73983458451645245
aF-0.85170728854287681
aF-0.74281983229402648
aF-0.24700078211143719
aF-0.34659313103375006
aF-0.67680836308816594
aF-0.37164790146589183
aF-0.57468645635522342
aF-0.87572037893130872
aF-0.55317606844149492
aF-0.42990009397329665
aF-1.0747972906491721
aF-0.63262780107092309
aF-0.17466282511730544
aF-0.32224671729009291
aF-0.54558299941340671
aF-0.62440411973616972
aF-0.68010176851530924
aF-0.85334238678130581
aF-0.48875706334039709
aF-0.54132056210468038
aF-0.80451741029189616
aF-0.5821368955369175
aF-0.41708195891129429
aF-0.4776618509231465
aF-0.48170448958841927
aF-0.48124231785986188
aF-0.64946129599409197
aF-0.8479289118410348
aF-0.46195745159873736
aF-0.34120582660122539
aF-1.0258541407272794
aF-0.61276335212478816
aF-0.27650584298955477
aF-0.24313758932377916
aF-0.48924094211931457
aF-0.49898866115847368
aF-0.49196347432095999
aF-0.96642127644983311
aF-0.39230155155475627
aF-0.40419789193947681
aF-0.61873596224717808
aF-0.601739510463288
aF-0.59721473872245445
aF-0.65160947428492022
aF-0.38380246583873462
aF-0.56491668600744793
aF-0.86279113912257566
aF-0.68488228563792175
aF-0.36660184212482388
aF-0.39966983834374509
aF-1.1263752770859805
aF-0.72608503911075795
aF-0.48267986513611094
a.