(lp1
F-466.77346086704313
aF9.5498927301300576
aF15.398594364188082
aF15.440930240824354
aF15.781648120954062
aF30.41108294887038
aF12.581524213746601
aF12.825007337773085
aF22.08921790781503
aF16.628087093847814
aF18.875934171595695
aF19.020712488490993
aF12.301342575666403
aF17.312648873854862
aF26.087787336159472
aF24.354585410470047
aF11.472194970802667
aF10.250613765172261
aF35.821066102084799
aF22.813812862636205
aF15.384893901269738
aF8.5423586245992453
aF15.791079454168448
aF17.135564968301193
aF18.198037891556627
aF28.827418393751
aF14.745624109173363
aF14.496712922918778
aF21.464278285387415
aF18.384335890574786
aF16.799898844600037
aF18.290261959659293
aF13.420552049442009
aF17.514684939822594
aF24.851141606969488
aF25.522489263456464
aF11.949047388058341
aF10.73843554985597
aF35.089460777071857
aF22.530399547295495
aF14.042191091267208
aF10.939867380411252
aF14.135812649232768
aF15.060168138965999
aF16.763773931212089
aF29.874741924007068
aF12.316078876644308
aF12.916945059109302
aF22.7751885573004
aF15.106661577325941
aF17.722736850549463
aF18.69573765286156
aF11.923647831606132
aF16.055286035734106
aF22.705729638052841
aF24.682751547664836
aF12.054466734397286
aF11.107817268486659
aF32.258465469771359
aF18.576225366325406
aF15.679158470786973
aF9.5360728732652849
aF17.197740294904001
aF15.53647033534922
aF16.842494361151747
aF29.056363687453167
aF12.9895288620879
aF14.127179903439066
aF21.446159447761477
aF16.980023571393573
aF16.941180938591163
aF17.161104616594287
aF14.348073655513483
aF15.878424092494415
aF23.31982853391807
aF23.825152631407274
aF11.505540716645335
aF11.451425729989124
aF33.595888027997233
aF21.931857847074056
aF15.023665086489713
aF8.6670249930036061
aF14.80221840413199
aF15.919881509517014
aF17.144295217014893
aF29.880205528539264
aF11.880550974915881
aF12.963234705529654
aF22.56114630665677
aF17.462887066392689
aF16.272999455973377
aF17.089253066086819
aF11.945499182308035
aF15.956176236886009
aF24.941551174969163
aF24.302327958322973
aF11.775446483532331
aF11.596868959525304
aF34.673875654756479
aF23.438852917938647
aF13.937623397713764
aF8.9747693025428958
aF15.964329604245243
aF16.653711700506737
aF17.008076009493969
aF29.101417522136781
aF12.125115477507395
aF12.939550043349529
aF21.713271752263996
aF18.071316636925634
aF17.144055517216167
aF18.282794649678099
aF13.130822706404031
aF16.406667152137246
aF23.829319147866901
aF24.798213404051413
aF10.858866751497894
aF10.503024846595046
aF34.119668979339892
aF21.487871919927539
aF14.441003014976442
aF8.5680001029571535
aF13.868456945057162
aF15.168216829705935
aF16.568571232230486
aF28.299993306439902
aF11.624514888572492
aF11.453859432365942
aF22.422522104868946
aF15.778348526121356
aF18.006549824590135
aF18.264346832403543
aF11.009397477149893
aF16.733495887177952
aF25.090257456688729
aF24.162421371733757
aF11.786965655550063
aF11.66370294587969
aF35.189720550986593
aF20.795250211400507
aF14.018091143577319
aF9.2721125195214356
aF15.116137226713638
aF15.590939405299652
aF16.418282144193292
aF28.474512054648457
aF11.832137241014397
aF12.276079979490172
aF22.242935460479618
aF16.442360834741812
aF16.258070579916378
aF17.438498838184877
aF11.858629176663813
aF15.548713031539728
aF22.92915583824411
aF25.437390282737237
aF11.632747912837715
aF11.249281475889198
aF33.550859619563063
aF19.8838660610635
aF13.897628029852186
aF8.3398089836155815
aF15.052726203096416
aF17.263538900951168
aF16.353651030533182
aF29.047721521053106
aF13.447132095621287
aF12.26596909472995
aF22.775945975984779
aF16.884822781277514
aF16.907856200010372
aF17.327893888277504
aF13.301367583071158
aF16.544136070908856
aF21.12620839232898
aF24.208366959977873
aF12.338327084252043
aF13.061197075512268
aF33.115482071678201
aF19.0649177295433
aF13.005774365200056
aF9.8265638399833097
aF15.215047638598895
aF16.844716617267018
aF15.861741870566577
aF28.947227157229534
aF12.644243185028264
aF12.347071721548314
aF23.304422458074153
aF16.787008132809675
aF18.044519957529626
aF16.704125732830601
aF12.637951625138502
aF15.134490532671698
aF22.808411050508379
aF22.876185584474044
aF11.989274039787315
aF12.46618046804163
aF32.880210765792292
aF20.086563982938372
aF14.702800382935335
a.