(lp1
F-0.45000000000000001
aF1.3500000000000001
aF-3.6000000000000001
aF0.90000000000000002
aF1.8
aF2.7000000000000002
aF0.45000000000000001
aF0.90000000000000002
aF1.8
aF0.90000000000000002
aF2.25
aF1.8
aF1.3072120680202673e-135
aF1.3500000000000001
aF2.25
aF1.8
aF1.3500000000000001
aF1.3500000000000001
aF2.25
aF1.8
aF2.25
aF0.90000000000000002
aF1.8
aF0.90000000000000002
aF1.3500000000000001
aF2.25
aF1.8
aF1.8
aF-3.1499999999999999
aF1.8
aF2.7000000000000002
aF2.7000000000000002
aF1.8
aF2.25
aF2.25
aF1.8
aF0.90000000000000002
aF1.8
aF2.25
aF2.25
aF2.25
aF1.8
aF1.8
aF1.8
aF2.25
aF2.25
aF1.3500000000000001
aF1.8
aF2.25
aF3.2680301700506686e-136
aF1.3500000000000001
aF1.3500000000000001
aF1.8
aF1.3500000000000001
aF-0.45000000000000001
aF2.25
aF1.8
aF1.8
aF1.634015085025334e-135
aF-4.0499999999999998
aF1.3500000000000001
aF1.8
aF1.8
aF0.45000000000000001
aF-3.6000000000000001
aF2.7000000000000002
aF0.90000000000000002
aF-3.2680301700506667e-136
aF1.3500000000000001
aF1.3500000000000001
aF2.25
aF2.7000000000000002
aF1.3500000000000001
aF2.25
aF2.7000000000000002
aF1.8
aF0.90000000000000002
aF1.3500000000000001
aF3.1499999999999999
aF2.25
aF2.25
aF0.45000000000000001
aF1.3500000000000001
aF0.45000000000000001
aF0.90000000000000002
aF1.3500000000000001
aF0.90000000000000002
aF0.90000000000000002
aF0.90000000000000002
aF1.3500000000000001
aF1.8
aF2.25
aF0.90000000000000002
aF1.8
aF2.25
aF1.3500000000000001
aF-3.1499999999999999
aF-9.8040905101520028e-136
aF2.25
aF1.8
aF1.8
aF0.90000000000000002
aF2.25
aF2.25
aF2.7000000000000002
aF1.3500000000000001
aF1.8
aF2.25
aF2.7000000000000002
aF2.25
aF-1.3500000000000001
aF-1.3500000000000001
aF2.25
aF0.45000000000000001
aF0.90000000000000002
aF2.25
aF1.8
aF0.90000000000000002
aF2.25
aF1.3500000000000001
aF-2.25
aF0.90000000000000002
aF2.25
aF2.25
aF2.25
aF1.3500000000000001
aF1.8
aF2.25
aF2.25
aF2.25
aF-0.45000000000000001
aF0.45000000000000001
aF1.8
aF0.45000000000000001
aF1.3500000000000001
aF2.25
aF1.3500000000000001
aF0.90000000000000002
aF2.25
aF1.3500000000000001
aF-3.1499999999999999
aF1.8
aF0.90000000000000002
aF0.45000000000000001
aF1.3500000000000001
aF2.25
aF0.90000000000000002
aF0.90000000000000002
aF1.8
aF-4.5
aF2.25
aF2.25
aF1.3500000000000001
aF1.8
aF1.3500000000000001
aF1.8
aF1.3500000000000001
aF1.8
aF2.25
aF1.3072120680202673e-135
aF2.25
aF1.8
aF0.90000000000000002
aF-3.6000000000000001
aF0.45000000000000001
aF2.25
aF0.90000000000000002
aF0.90000000000000002
aF0.90000000000000002
aF0.45000000000000001
aF2.25
aF2.7000000000000002
aF0.90000000000000002
aF1.8
aF2.25
aF1.8
aF0.45000000000000001
aF0.90000000000000002
aF2.7000000000000002
aF1.8
aF2.25
aF0.90000000000000002
aF1.8
aF0.90000000000000002
aF1.3500000000000001
aF2.25
aF1.8
aF1.8
aF-3.1499999999999999
aF1.8
aF2.7000000000000002
aF2.7000000000000002
aF1.8
aF2.25
aF2.25
aF1.8
aF0.90000000000000002
aF1.8
aF2.25
aF2.25
aF2.25
a.