(dp1
S'H'
(lp2
F-0.57407407407407407
aF-0.91975308641975306
aF-2.1111111111111112
aF-2.1111111111111112
aF-3.3024691358024691
aF-1.0246913580246915
aF-0.94444444444444442
aF-2.7160493827160495
aF-1.9074074074074074
aF-1.9259259259259258
aF-1.5679012345679013
aF-1.191358024691358
aF-1.4135802469135803
aF-3.0185185185185186
aF-2.9506172839506171
aF-1.4506172839506173
aF-1.037037037037037
aF-3.8765432098765431
aF-2.5925925925925926
aF-1.3888888888888888
aF-0.70370370370370372
aF-1.0246913580246915
aF-1.882716049382716
aF-1.808641975308642
aF-3.3395061728395063
aF-1.0432098765432098
aF-0.89506172839506171
aF-2.6728395061728394
aF-1.9074074074074074
aF-2.0987654320987654
aF-1.8209876543209877
aF-1.345679012345679
aF-1.6111111111111112
aF-3.1296296296296298
aF-2.8641975308641974
aF-1.2839506172839505
aF-0.98765432098765427
aF-3.9382716049382718
aF-2.6666666666666665
aF-1.5555555555555556
aF-0.79629629629629628
aF-1.1604938271604939
aF-1.9074074074074074
aF-1.7530864197530864
aF-3.3024691358024691
aF-1.1604938271604939
aF-1.0493827160493827
aF-2.6975308641975309
aF-1.9753086419753085
aF-2.0555555555555554
aF-1.7160493827160495
aF-1.4135802469135803
aF-1.5864197530864197
aF-3.1296296296296298
aF-2.8580246913580245
aF-1.2901234567901234
aF-1.0308641975308641
aF-4
aF-2.7037037037037037
aF-1.5617283950617284
aF-0.5679012345679012
aF-0.86419753086419748
aF-2.1728395061728394
aF-2.1851851851851851
aF-3.1666666666666665
aF-0.92592592592592593
aF-1.0246913580246915
aF-2.7962962962962963
aF-1.771604938271605
aF-1.8271604938271604
aF-1.4012345679012346
aF-1.0802469135802468
aF-1.2592592592592593
aF-2.8456790123456792
aF-3.2037037037037037
aF-1.4567901234567902
aF-1.0432098765432098
aF-3.882716049382716
aF-2.4135802469135803
aF-1.228395061728395
aF-0.59259259259259256
aF-1.0802469135802468
aF-2.1728395061728394
aF-2.2407407407407409
aF-3.1296296296296298
aF-1.0679012345679013
aF-1.1604938271604939
aF-2.5493827160493829
aF-1.7592592592592593
aF-1.9012345679012346
aF-1.4753086419753085
aF-1.2592592592592593
aF-1.4197530864197532
aF-2.882716049382716
aF-3.0802469135802468
aF-1.462962962962963
aF-1.0740740740740742
aF-3.9135802469135803
aF-2.425925925925926
aF-1.3209876543209877
aF6.8124142661179636
aF11.691091297058373
aF7.0370370370370283
aF8.6913580246913593
aF4.7295000762078985
aF7.8265508306660534
aF11.336419753086414
aF6.25270538027738
aF7.2074759945130342
aF9.2290809327846333
aF10.035512879134261
aF7.9325179088553517
aF5.5635192805974665
aF6.857681755829895
aF5.4666971498247197
aF4.3092897424173069
aF4.6776406035665294
aF5.0958695320835208
aF5.5747599451303147
aF8.4845679012345716
aF6.2085048010973907
aF11.493217497332722
aF7.8813062033226631
aF10.512764822435607
aF5.5328837067520231
aF7.8438119189148008
aF11.205037341868605
aF6.2571635421429566
aF7.3679698216735234
aF9.3976527968297461
aF9.7765965554031471
aF6.8558146623990162
aF5.521604938271607
aF6.9029492455418371
aF6.0185947264136601
aF5.0551745160798509
aF4.9751562261850264
aF5.1937204694406303
aF5.5432098765432123
aF8.6666666666666607
aF6.3227023319615858
aF11.36930345983845
aF8.2815500685870997
aF11.753848498704478
aF5.5443148910227151
aF7.393994817863133
aF10.553116902911146
aF6.3467840268251869
aF7.308032312147537
aF9.1265432098765551
aF10.586038713610716
aF6.822778539856726
aF6.279568663313511
aF6.5943072702331937
aF6.0230528882792358
aF5.3047172687090409
aF4.9681832037799039
aF4.9753086419753085
aF5.2208504801097346
aF8.4066834324036002
aF6.7268709038256382
aF11.70995275110503
aF6.5256820606614845
aF8.2373113854595275
aF4.7191358024691379
aF8.611796982167359
aF10.85124218869074
aF5.8659122085047963
aF8.0774653254077098
aF8.982472184118274
aF10.141479957323584
aF8.5305974698978879
aF5.3278463648833991
aF7.3650739216582757
aF3.7548010973936883
aF4.4827008078036901
aF4.3993674744703579
aF3.659083981100435
aF6.3289513793629046
aF8.4231443377533903
aF6.9574759945130342
aF11.135535741502826
aF6.8837067520195108
aF7.5778463648834116
aF4.7548010973936901
aF8.4460067062947619
aF10.381649138850795
aF7.7166971498247197
aF8.4420438957475987
aF9.1754305746075318
aF10.446921201036428
aF8.0685871056241361
aF4.910227099527515
aF7.523281511964627
aF5.0491159884164087
aF4.4338134430726974
aF4.9327846364883463
aF3.6591982929431457
aF6.4420438957475978
aF8.4401768023167172
aF0.43902439024390244
asS'C'
(lp3
F-1.1869918699186992
aF-1.3902439024390243
aF-1.1219512195121952
aF-0.43902439024390244
aF-3.1626016260162602
aF-0.99186991869918695
aF-0.82926829268292679
aF-1.8048780487804879
aF-1.4471544715447155
aF-2.5040650406504064
aF-2.3170731707317072
aF-1.024390243902439
aF-1.4959349593495934
aF-3.089430894308943
aF-2.065040650406504
aF-0.69105691056910568
aF-1.0406504065040652
aF-4.0650406504065044
aF-2.5934959349593494
aF-2.1382113821138211
aF-0.91869918699186992
aF-1.3658536585365855
aF-1.5284552845528456
aF-1.0487804878048781
aF-3.0406504065040649
aF-1.1626016260162602
aF-1.0975609756097562
aF-1.8617886178861789
aF-1.5447154471544715
aF-2.3252032520325203
aF-1.975609756097561
aF-1.0487804878048781
aF-1.4227642276422765
aF-2.8861788617886179
aF-2.178861788617886
aF-0.91869918699186992
aF-1.0975609756097562
aF-3.7642276422764227
aF-2.4146341463414633
aF-1.910569105691057
aF-0.92682926829268297
aF-1.4227642276422765
aF-1.6666666666666667
aF-1.3658536585365855
aF-3.0406504065040649
aF-1.056910569105691
aF-1.056910569105691
aF-2.2357723577235773
aF-1.5853658536585367
aF-2.0406504065040649
aF-1.6016260162601625
aF-1.0975609756097562
aF-1.0975609756097562
aF-2.5203252032520327
aF-2.5934959349593494
aF-1.1219512195121952
aF-1.1463414634146341
aF-3.5447154471544717
aF-2.154471544715447
aF-1.6341463414634145
aF-1.1869918699186992
aF-1.3170731707317074
aF-1.0406504065040652
aF-0.47154471544715448
aF-3.2276422764227641
aF-1.1382113821138211
aF-0.80487804878048785
aF-1.6747967479674797
aF-1.6829268292682926
aF-2.5772357723577235
aF-2.5121951219512195
aF-1.1788617886178863
aF-1.8699186991869918
aF-3.2113821138211383
aF-1.6910569105691058
aF-0.61788617886178865
aF-0.95121951219512191
aF-3.9918699186991868
aF-2.8048780487804876
aF-2.2032520325203251
aF-1.1544715447154472
aF-1.1300813008130082
aF-1.3739837398373984
aF-0.82113821138211385
aF-3.065040650406504
aF-1.056910569105691
aF-0.78048780487804881
aF-2.089430894308943
aF-1.6829268292682926
aF-2.2357723577235773
aF-2.1707317073170733
aF-1.1300813008130082
aF-1.3983739837398375
aF-2.9024390243902438
aF-2.1219512195121952
aF-0.80487804878048785
aF-1.032520325203252
aF-3.7479674796747968
aF-2.5609756097560976
aF-1.7804878048780488
aF3.7455218454623567
aF6.8720999405115997
aF6.9200872496529753
aF13.921078722982354
aF5.0304712803225575
aF5.4064379668186922
aF6.0765417410271647
aF9.132659131469369
aF7.2065569436182138
aF8.2825038006477545
aF8.8669442791988864
aF7.2270473924251384
aF8.3312842884526361
aF6.569237887500825
aF9.1990217463150188
aF5.5143102650538713
aF4.1853394143697553
aF3.1827615837134045
aF4.5827219247802269
aF6.7695155000330489
aF5.342983673739174
aF7.6954193932183195
aF6.5581333862119111
aF12.209002577830663
aF3.8113556745323538
aF5.4369753453632068
aF5.9091810430299434
aF9.1272390772688166
aF7.0935289840703293
aF7.6666005684447054
aF9.828673408685308
aF8.0789212770176526
aF7.1058232533544823
aF6.8325732037808233
aF8.7322361028488356
aF5.0828210721131608
aF4.3807257584771051
aF5.4484764359838698
aF5.7549077929803678
aF6.6017582127040733
aF5.043426531826297
aF7.0407826029479788
aF6.6612466124661269
aF10.768590124925639
aF3.7625751867274757
aF6.1674928944411356
aF7.4520457399695959
aF8.0663626148456586
aF7.0394606385088219
aF8.5755833168087818
aF10.353493291030468
aF8.4620265714852287
aF7.7140590918104284
aF7.6804811950558456
aF6.7778438759997384
aF5.1802498512789974
aF4.092405314297042
aF5.7927159759402453
aF6.7159759402472066
aF7.272655165576051
aF3.6154405446493434
aF7.6799524092801814
aF7.3885914468900831
aF13.647564280520854
aF5.9481789939850618
aF4.6882146870249164
aF6.7749355542335961
aF9.1300152025910446
aF5.8588141978980683
aF8.4066362614845644
aF7.8758675391631963
aF6.5208539890276986
aF6.4221032454226989
aF6.1341793905743955
aF10.993985061801833
aF5.4718752065569376
aF4.6642871306761888
aF5.0649745521845464
aF3.2952607574856239
aF6.9099081234714816
aF3.4639434199220012
aF8.6009650340405841
aF6.3316808777843931
aF13.415162932117125
aF6.8900786568841168
aF5.1431026505386974
aF8.0412452905016796
aF8.0001321964439143
aF5.9726353361094509
aF8.8631105823253318
aF7.9464604402141577
aF6.6985260096503376
aF8.7112168682662414
aF6.2506444576640892
aF8.2371604203846829
aF5.4253420582986358
aF3.5436578756031403
aF5.2942031859343155
aF4.5877453896490206
aF8.0412452905016831
aF0.33333333333333331
asS'E'
(lp4
F-1.4761904761904763
aF-2.4166666666666665
aF-2.7738095238095237
aF-2.7857142857142856
aF-2.1190476190476191
aF-2.3690476190476191
aF-2.5357142857142856
aF-2.7857142857142856
aF-2.7142857142857144
aF-0.77380952380952384
aF-1.0238095238095237
aF-2.2857142857142856
aF-0.9285714285714286
aF-1.4285714285714286
aF-3.0595238095238093
aF-1.8095238095238095
aF-1.3928571428571428
aF-2.5357142857142856
aF-1.5
aF-0.5714285714285714
aF-1.5952380952380953
aF-2.3214285714285716
aF-2.6071428571428572
aF-2.4642857142857144
aF-2.1785714285714284
aF-2.1190476190476191
aF-2.2976190476190474
aF-2.75
aF-2.6190476190476191
aF-0.65476190476190477
aF-0.98809523809523814
aF-2.0119047619047619
aF-0.63095238095238093
aF-1.4642857142857142
aF-3.0238095238095237
aF-1.7857142857142858
aF-1.3809523809523809
aF-2.8095238095238093
aF-1.5952380952380953
aF-0.5357142857142857
aF-1.4166666666666667
aF-1.9285714285714286
aF-2.3095238095238093
aF-2.0595238095238093
aF-2.2380952380952381
aF-2.0119047619047619
aF-2.0119047619047619
aF-2.1071428571428572
aF-2.3809523809523809
aF-1.2023809523809523
aF-1.7619047619047619
aF-1.7738095238095237
aF-1.1785714285714286
aF-1.9880952380952381
aF-2.3809523809523809
aF-1.4523809523809523
aF-1.2261904761904763
aF-2.9642857142857144
aF-1.8809523809523809
aF-1.0119047619047619
aF-1.4761904761904763
aF-2.5952380952380953
aF-2.7380952380952381
aF-2.5595238095238093
aF-2.2738095238095237
aF-2.3214285714285716
aF-2.3809523809523809
aF-2.7738095238095237
aF-2.5952380952380953
aF-0.94047619047619047
aF-1.0833333333333333
aF-2.25
aF-0.70238095238095233
aF-1.5833333333333333
aF-3.0952380952380953
aF-1.8809523809523809
aF-1.5119047619047619
aF-2.6071428571428572
aF-1.5238095238095237
aF-0.8214285714285714
aF-1.4642857142857142
aF-2.4523809523809526
aF-2.3095238095238093
aF-2
aF-2.5476190476190474
aF-2.1904761904761907
aF-2.2142857142857144
aF-2.6309523809523809
aF-2.6190476190476191
aF-1.2619047619047619
aF-1.4047619047619047
aF-1.9880952380952381
aF-1.0595238095238095
aF-1.9285714285714286
aF-2.6904761904761907
aF-1.6071428571428572
aF-1.3333333333333333
aF-2.8690476190476191
aF-1.8333333333333333
aF-1.2380952380952381
aF3.5113378684807253
aF6.6716269841269824
aF5.2702664399092969
aF10.144557823129247
aF10.962018140589565
aF3.6138038548752784
aF6.010629251700677
aF9.1445578231292473
aF4.5136054421768712
aF11.151218820861683
aF9.4518140589569093
aF6.9659863945578202
aF8.0663265306122476
aF9.6496598639455762
aF4.8655045351473927
aF5.1541950113378689
aF4.0004251700680227
aF14.177295918367335
aF11.488095238095237
aF10.221088435374147
aF2.3837868480725626
aF5.7181122448979567
aF5.2147108843537424
aF11.748724489795922
aF11.289540816326529
aF4.0096371882086128
aF6.899518140589568
aF9.3065476190476186
aF4.3548752834467113
aF11.535572562358274
aF8.8212868480725675
aF7.9641439909297072
aF9.4709467120181454
aF9.2487244897959187
aF4.7851473922902503
aF4.7397959183673475
aF3.0929705215419494
aF11.439909297052161
aF10.002834467120179
aF10.272534013605442
aF2.8621031746031753
aF7.49489795918368
aF4.6422902494331053
aF12.270266439909298
aF11.514739229024933
aF3.9165249433106637
aF6.3927154195011386
aF11.024234693877544
aF4.759637188208619
aF11.780470521541954
aF7.0385487528344628
aF7.6750283446712029
aF7.4800170068027221
aF9.6546201814059014
aF7.9977324263038501
aF4.4620181405895698
aF3.603599773242629
aF11.582057823129249
aF9.4858276643990962
aF10.035572562358281
aF3.8446712018140583
aF4.8599773242630375
aF5.3361678004535076
aF11.794075963718823
aF10.008361678004537
aF3.1943027210884347
aF6.2596371882086119
aF9.4845521541950131
aF5.1456916099773249
aF10.91312358276644
aF10.147817460317471
aF6.9017857142857144
aF10.637613378684804
aF9.671626984126986
aF4.2766439909297054
aF4.6286848072562341
aF3.7260487528344699
aF14.500425170068018
aF11.868480725623577
aF10.146683673469392
aF3.6772959183673479
aF5.2001133786848097
aF6.9994331065759585
aF14.642857142857142
aF9.0096371882086164
aF3.1541950113378658
aF5.3826530612244898
aF8.5661848072562332
aF4.2358276643990918
aF10.859977324263042
aF10.407596371882082
aF8.0117630385487573
aF8.7940759637188233
aF10.161564625850339
aF7.2137188208616818
aF5.3337585034013628
aF4.4841269841269824
aF14.851899092970505
aF10.424603174603172
aF9.5147392290249364
aF0.22764227642276422
as.