(lp1
F0.10222648722225321
aF0.016505962834827251
aF0.0012071702016180268
aF0.00034312431162151721
aF0.0082782224666033393
aF-0.003742836534710246
aF0.0036493445181567065
aF0.0067881347714491037
aF0.0071883879875121017
aF0.0041075084375389566
aF0.0064126880568596174
aF0.016145960372256792
aF0.0037047394422829636
aF0.0036144592571045568
aF0.0061968597917545637
aF-0.00086439260421240641
aF0.005821488154812266
aF0.0048223987303313426
aF-0.00088670947250562117
aF0.00034787749673102303
aF0.012169877619796692
aF0.019104060508971121
aF0.005981028010512375
aF0.00070796121920945333
aF0.0044366866989936499
aF-0.0058538175052521638
aF0.0037981530254506506
aF0.0046490541868156859
aF0.005833921402105471
aF0.0026597649741501857
aF0.0063176395533702566
aF0.019898973879669778
aF0.0020723909358948025
aF0.0037980950761998585
aF0.0036689053913933102
aF0.004018248122992848
aF0.0074496764235772433
aF0.0040125240189576887
aF-0.00080047154488131669
aF0.0012248476306461406
aF0.0084042007197485114
aF0.061681110701951529
aF0.0056201343691796883
aF0.034925242151121916
aF0.060485839191129306
aF0.01728095708095035
aF0.024459690950173345
aF0.038801495340781172
aF0.063424991881472353
aF0.033344206558162816
aF0.068882280664090162
a.