(lp1
F0.098910814990626955
aF0.0081902603460539212
aF0.0050895568194174829
aF0.003852978703085042
aF0.0060360502904818212
aF0.0016474215534042584
aF0.0037605552971627628
aF0.0071890805939223944
aF0.0073864087665324214
aF0.0023025201170607558
aF0.0058156187194479837
aF0.0086525434129015189
aF0.0061270619310746727
aF0.002133497065208319
aF0.0038292924232796472
aF0.0040627934767230988
aF0.0055844457719519212
aF0.0051662719239809326
aF0.0012323709242754082
aF0.0031294273307668481
aF0.0074196490829198233
aF0.0079483427777172072
aF0.005439551816717742
aF0.0038033457352448213
aF0.0059985571199689296
aF0.0015137399577191163
aF0.0037120184185930171
aF0.007004621226643826
aF0.0073074101917661111
aF0.0022001457764092309
aF0.0060152664546424947
aF0.0089288893595804286
aF0.0062693200653541345
aF0.002247766050419341
aF0.0038588756264743476
aF0.0042878654825676803
aF0.0054306285557164441
aF0.0050412145947493006
aF0.001125838769024209
aF0.0030335809818414451
aF0.0074627620909698735
aF0.030582506040552456
aF0.037224695618894903
aF0.031103613331179589
aF0.030491363443719388
aF0.036683172306249096
aF0.031736279240658444
aF0.033524765244976211
aF0.065386049745650751
aF0.034180647367910925
aF0.064730167622716092
a.