(lp1
F-2.3106135674402215
aF0.055157360338580652
aF0.07919151383197634
aF0.080072552890424628
aF0.08444629769964597
aF0.14628167657680824
aF0.072456402934986675
aF0.070822094480844283
aF0.11015684814777242
aF0.082466456992245418
aF0.085281883376728873
aF0.090327276063788237
aF0.071458904618608751
aF0.08126739862420776
aF0.11246688270753885
aF0.11368473082522257
aF0.05930669564968017
aF0.058110880988833782
aF0.16089275047555615
aF0.099913573360228339
aF0.069960454323280893
aF0.042563950400480659
aF0.063680292153304632
aF0.061388894286249461
aF0.072685383296692996
aF0.15582044900316122
aF0.05131657758647331
aF0.051099970050022217
aF0.1132480394458993
aF0.074415064803612374
aF0.090676577646697523
aF0.089608234338336951
aF0.04823916602668437
aF0.079760224831297716
aF0.1264740017825072
aF0.10804440194308175
aF0.053512634737509508
aF0.04974073469238928
aF0.17201382465071843
aF0.10806266500550957
aF0.077923317686301785
aF0.041749609007700174
aF0.061166270562582864
aF0.066545699699866553
aF0.072394554613133266
aF0.1582550978372316
aF0.04748555708198119
aF0.05506630263777753
aF0.106186420707807
aF0.066633925647315836
aF0.095678234667925008
aF0.10061338928230493
aF0.048507062642952667
aF0.086580467763144958
aF0.12129185822612579
aF0.096315127802180933
aF0.04751087530525256
aF0.047564188330030489
aF0.1583411817998657
aF0.099187266529340831
aF0.080145187016562563
aF0.043691122909742912
aF0.070977033512352697
aF0.078272170432095278
aF0.083366160991111257
aF0.15298393261186757
aF0.055064951195162817
aF0.0612125198941504
aF0.11586211759785837
aF0.081333823901385133
aF0.086895258097030692
aF0.084142980343634863
aF0.060362026675099739
aF0.079280563249978245
aF0.11364194904920549
aF0.10832789607132089
aF0.058771797654978364
aF0.053849985665430471
aF0.1669600479411267
aF0.096922696405989509
aF0.07065246842426022
aF0.040145736283632168
aF0.069865677390540656
aF0.067256412198152662
aF0.076594541205718417
aF0.15567455210019354
aF0.04990825938712936
aF0.052604129719164665
aF0.1134395456533405
aF0.071755426278856088
aF0.089845666471551539
aF0.085920521508968548
aF0.056198042129773196
aF0.08433383919250631
aF0.11829657440396006
aF0.11093046690361365
aF0.054402405765896861
aF0.056426947628611807
aF0.1802162699556176
aF0.099294826433250633
aF0.074182558056169315
aF0.043406948021450523
aF0.072085959947674444
aF0.081757044490853442
aF0.085581642299730698
aF0.15545481506949205
aF0.052354313158765001
aF0.062901933100903404
aF0.11312412932701627
aF0.081203189905227666
aF0.075202036996832755
aF0.068912361559219829
aF0.061015882156891896
aF0.059843523491195781
aF0.11320703073946291
aF0.11883510442476755
aF0.059576248203322059
aF0.055534964226931119
aF0.16284235358850199
aF0.09802030951479121
aF0.063698400203750449
aF0.045897698531429151
aF0.072971026388398391
aF0.074578221810855341
aF0.074094786925290798
aF0.15463684125253691
aF0.055092850481875226
aF0.052084974986571803
aF0.11020386471053753
aF0.08427717817344392
aF0.083808176452778299
aF0.084115378283816877
aF0.057371978468840019
aF0.06918931881444626
aF0.1207043283900073
aF0.11275282315840691
aF0.058983508244056494
aF0.055529845075607764
aF0.16846578648549981
aF0.11277549534013362
aF0.069720128888806576
aF0.039554403390827504
aF0.058452170631885791
aF0.069995888521446892
aF0.070787170163290905
aF0.15220123755701018
aF0.049357655129395391
aF0.047565662937717683
aF0.11088020070268381
aF0.072336644302504777
aF0.088894338863642383
aF0.087622205416295715
aF0.043416921513683177
aF0.080623703879499964
aF0.1137053849755868
aF0.11574349447635861
aF0.051532430923388037
aF0.055642127816167668
aF0.1544942815821195
aF0.099963198008371182
aF0.07650747009993987
aF0.047964487517604501
aF0.071172246752017776
aF0.068846983683463814
aF0.082783596467537843
aF0.157045839251272
aF0.055825696210259235
aF0.056707094254760546
aF0.098878136202032521
aF0.084627409921483876
aF0.08831041861872975
aF0.085603494280390297
aF0.056449362395950033
aF0.079472365869670103
aF0.11107086078700974
aF0.11215812613689069
aF0.060671753099499126
aF0.06137757884256418
aF0.17211618312628268
aF0.10553099711412961
aF0.080685061029476701
aF0.046205295382371454
aF0.062945862176235753
aF0.088369132914808773
aF0.094750754390171929
aF0.14301061418333766
aF0.062562853936170837
aF0.066871525535877482
aF0.12524488396973643
aF0.077627211933854454
aF0.069670505930098214
aF0.06870058828435556
aF0.060252560515844836
aF0.07255068104622224
aF0.10290466217438791
aF0.11994919906737163
aF0.068035885591179068
aF0.059043397915343271
aF0.1546130601764501
aF0.09274961742158018
aF0.063009509432095684
a.