(lp1
F-0.82529278062973899
aF0.016712888312878711
aF0.027622226615445878
aF0.025883950377467081
aF0.028032687423761568
aF0.051992735361255239
aF0.02158898901347726
aF0.02224240172883106
aF0.03519075953282301
aF0.02925150317385844
aF0.032879204657636649
aF0.032287121360079232
aF0.021699558434568111
aF0.027660538634638344
aF0.042676663112223408
aF0.041384028407119411
aF0.019897720861427468
aF0.019295047715778127
aF0.057585882506267276
aF0.038371212922399728
aF0.027967281455033886
aF0.015532086603727494
aF0.028270385200482143
aF0.026218393275879628
aF0.028069947734848881
aF0.050385781346031791
aF0.022998960687608913
aF0.023013756841073103
aF0.035648054251448458
aF0.027574953770235416
aF0.0335434183436552
aF0.034543663302147219
aF0.023226698289633186
aF0.029810619321110857
aF0.043459442867909932
aF0.040786354732586683
aF0.020419735388967037
aF0.020616890474371999
aF0.062274421037147802
aF0.036844159253082827
aF0.026385860586528559
aF0.014184549958496558
aF0.027232733263361172
aF0.027724990953047784
aF0.028485673602155537
aF0.051490427885231504
aF0.02226496973121728
aF0.021900454584084995
aF0.034513228277830689
aF0.028434475160353075
aF0.034393270190199325
aF0.034615639266327457
aF0.022557109145670592
aF0.029011832564818329
aF0.04497966208106853
aF0.044033623362397377
aF0.020064333795945823
aF0.01894346095205636
aF0.060502161403940408
aF0.038695860779188372
aF0.027861565096954585
aF0.014216296327002959
aF0.026064529620849545
aF0.029683747124998952
aF0.031152285024455786
aF0.052930412666056657
aF0.023115265876879856
aF0.024921199085264592
aF0.039155706487025647
aF0.031102258830143562
aF0.030707584324853137
aF0.032829401237030278
aF0.02202662483895822
aF0.028578336753363028
aF0.041174093821297372
aF0.044394453918064729
aF0.021923577610319239
aF0.020906619233495842
aF0.058518563262090942
aF0.037512032774162381
aF0.02517932467641544
aF0.015555059687455899
aF0.028403139106191855
aF0.029294704452819304
aF0.030769119723776134
aF0.052473947551685163
aF0.025130976913043526
aF0.024845152254391403
aF0.038035797007553156
aF0.031396595709209496
aF0.028970406389434572
aF0.032023214086701793
aF0.02403189377032303
aF0.028174519609866354
aF0.041030096209663983
aF0.04319801682835004
aF0.021724054776845535
aF0.020638917881597212
aF0.061968063678955999
aF0.036561650601189835
aF0.023635580996599761
aF0.012877633577084355
aF0.02502697892389652
aF0.02628061524226482
aF0.029792835123099558
aF0.050917271550600135
aF0.020459515388913226
aF0.021745588830676132
aF0.037036487753437784
aF0.029567297609205005
aF0.031954161904666198
aF0.03280920310462352
aF0.018952031193106102
aF0.028870758353932734
aF0.042546152921658482
aF0.044507275684094495
aF0.020132877133035115
aF0.018643585230282679
aF0.058141153345749742
aF0.03733361794034467
aF0.02586763318886625
aF0.014856322841784737
aF0.027007256051175668
aF0.028398212005008593
aF0.029610147808475568
aF0.050838728406507341
aF0.02061621435287701
aF0.021575198499830174
aF0.038193683070561139
aF0.033249245207635711
aF0.030970131996575726
aF0.030104008345382002
aF0.021356096909245465
aF0.027934006070233094
aF0.043720483756619362
aF0.043620194385226491
aF0.019458900257479494
aF0.017787270800903286
aF0.061407832392028364
aF0.039087318241450869
aF0.025335422055651809
aF0.016653702814240966
aF0.025602500694405048
aF0.027053590063900412
aF0.028741621723187685
aF0.052282207354921117
aF0.022155100701165092
aF0.022432493565177548
aF0.039244470511405123
aF0.030177764519366299
aF0.030239631140838476
aF0.029197608819408839
aF0.019908859304723112
aF0.02752188849837341
aF0.042578517101997129
aF0.044094551989714965
aF0.022715939132963367
aF0.020567545499653797
aF0.059142076840228014
aF0.039221531992824868
aF0.024796671674803986
aF0.015693915707794538
aF0.024458469191696541
aF0.024850778409458818
aF0.026782615630532112
aF0.05303298179053649
aF0.020127422044144697
aF0.021521610513551569
aF0.032994491509559146
aF0.027846513457602296
aF0.03506076751769216
aF0.036676834954251836
aF0.018746121507170185
aF0.030622956999349114
aF0.041438644678473746
aF0.04008935807480693
aF0.021963970823029078
aF0.022129276918431372
aF0.056909624830549892
aF0.034193583239031107
aF0.029365076515831652
aF0.014202734920348133
aF0.02389579355684911
aF0.027740969546246469
aF0.028547996069507198
aF0.052461237354795832
aF0.02059122051202434
aF0.021179660702687335
aF0.035637277891037357
aF0.027921721624598134
aF0.03014075722831841
aF0.031001590224657087
aF0.01940121857010094
aF0.029207583319192938
aF0.042387101849568398
aF0.044120793402452674
aF0.020397718879013746
aF0.020338736024274957
aF0.058473759761097602
aF0.03512861950247035
aF0.025088118631304713
a.