(dp1
S'childNo'
p2
(dp3
g2
(dp4
g2
(dp5
g2
(dp6
g2
(dp7
g2
NsS'childYes'
p8
NsS'prediction'
p9
F0.67452087161984775
ssS'attribute'
p10
S'S'
sg8
(dp11
g2
Nsg8
Nsg9
F0.64179014937908696
sssg10
S'C'
sg8
(dp12
g2
(dp13
g2
(dp14
g2
Nsg8
Nsg9
F0.76304966782663719
ssg10
S'+'
sg8
(dp15
g2
Nsg8
Nsg9
F0.75559660312038945
sssg10
S'S'
sg8
(dp16
g2
Nsg8
Nsg9
F0.69829042947747277
ssssg10
S'A'
sg8
(dp17
g2
Nsg8
Nsg9
F0.52668924367037573
sssg10
S'T'
sg8
(dp18
g2
Nsg8
Nsg9
F0.51862151581919691
sssg10
S'H'
sg8
(dp19
g2
(dp20
g2
(dp21
g2
(dp22
g2
(dp23
g2
Nsg8
Nsg9
F0.28674420186356525
ssg10
S'L'
sg8
(dp24
g2
Nsg8
Nsg9
F0.21826510505079802
sssg10
S'A'
sg8
(dp25
g2
Nsg8
Nsg9
F0.20695407024550688
sssg10
S'P'
sg8
(dp26
g2
Nsg8
Nsg9
F0.29947428403367521
sssg10
S'S'
sg8
(dp27
g2
(dp28
g2
(dp29
g2
(dp30
g2
(dp31
g2
Nsg8
Nsg9
F0.13870469615768916
ssg10
S'T'
sg8
(dp32
g2
Nsg8
Nsg9
F0.43215560100288369
sssg10
S'P'
sg8
(dp33
g2
Nsg8
Nsg9
F0.50857997294282387
sssg10
S'R'
sg8
(dp34
g2
Nsg8
Nsg9
F0.60629808654863715
sssg10
S'L'
sg8
(dp35
g2
Nsg8
Nsg9
F0.23607823141639656
ssss.