(lp1
F0.098586250128114172
aF0.01215782768433037
aF0.0045334120949898846
aF0.0013674556199105275
aF0.007423165931327403
aF-0.0024913125947988429
aF0.0033430659850739791
aF0.0075866618698449927
aF0.0074994046258156184
aF0.0022650420275640956
aF0.0078466135585230426
aF0.014301847321776896
aF0.005309748989975189
aF0.0046619146288926598
aF0.0032369380908505597
aF0.00086834450114975359
aF0.0039617306612474788
aF0.0038055491655645127
aF3.1637480738423423e-05
aF0.001499842523064218
aF0.0091561129360654935
aF0.012787972274495608
aF0.0058130018280015232
aF0.0026574674076959024
aF0.0046402263328503635
aF-0.0024648919662813612
aF0.0042901879093974011
aF0.0035810954105466569
aF0.0031671778850978364
aF0.0034884599758433898
aF0.0067241466486054899
aF0.016359458148816598
aF0.0057436564541440771
aF0.0047596349608801094
aF0.0026419275262536228
aF0.0023205283768681895
aF0.0070787982520258436
aF0.004931363097086092
aF-0.00029294028872507618
aF0.0016093224439754242
aF0.0080979158905791614
aF0.053531454133179002
aF0.01165448200810764
aF0.033400313986827364
aF0.057916264678073433
aF0.012220479599700665
aF0.02844950585034008
aF0.036725042048342947
aF0.06186120807977076
aF0.038793269300227348
aF0.059792980827886713
a.